; Function Attrs: nofree norecurse nosync nounwind memory(readwrite, inaccessiblemem: none) uwtable
define internal noundef i32 @filter_inverse_dblp_clip(ptr readnone captures(none) %0, ptr noundef readonly captures(none) %1, i32 noundef %2, i32 noundef %3) #6 {
  %5 = load ptr, ptr %1, align 8, !tbaa !44
  %6 = getelementptr inbounds nuw i8, ptr %1, i64 8
  %7 = load ptr, ptr %6, align 8, !tbaa !47
  %8 = getelementptr inbounds nuw i8, ptr %1, i64 16
  %9 = load ptr, ptr %8, align 8, !tbaa !46
  %10 = getelementptr inbounds nuw i8, ptr %1, i64 24
  %11 = load i32, ptr %10, align 8, !tbaa !48
  %12 = getelementptr inbounds nuw i8, ptr %1, i64 28
  %13 = load i32, ptr %12, align 4, !tbaa !50
  %14 = getelementptr inbounds nuw i8, ptr %1, i64 32
  %15 = load float, ptr %14, align 8, !tbaa !53
  %16 = fpext nsz float %15 to double
  %17 = fsub nsz double 1.000000e+00, %16
  %18 = fdiv nsz double 1.000000e+00, %17
  %19 = mul nsw i32 %13, %2
  %20 = sdiv i32 %19, %3
  %21 = add nsw i32 %2, 1
  %22 = mul nsw i32 %13, %21
  %23 = sdiv i32 %22, %3
  %24 = icmp slt i32 %20, %23
  %25 = icmp sgt i32 %11, 0
  %or.cond = select i1 %24, i1 %25, i1 false
  br i1 %or.cond, label %.lr.ph.us.preheader, label %._crit_edge46

.lr.ph.us.preheader:                              ; preds = %4
  %26 = sext i32 %20 to i64
  %wide.trip.count52 = sext i32 %23 to i64
  %wide.trip.count = zext nneg i32 %11 to i64
  br label %.lr.ph.us

.lr.ph.us:                                        ; preds = %.lr.ph.us.preheader, %._crit_edge.us
  %indvars.iv49 = phi i64 [ %26, %.lr.ph.us.preheader ], [ %indvars.iv.next50, %._crit_edge.us ]
  %27 = getelementptr inbounds ptr, ptr %9, i64 %indvars.iv49
  %28 = load ptr, ptr %27, align 8, !tbaa !55
  %29 = getelementptr inbounds ptr, ptr %5, i64 %indvars.iv49
  %30 = load ptr, ptr %29, align 8, !tbaa !55
  %31 = getelementptr inbounds ptr, ptr %7, i64 %indvars.iv49
  %32 = load ptr, ptr %31, align 8, !tbaa !55
  br label %33

33:                                               ; preds = %.lr.ph.us, %33
  %indvars.iv = phi i64 [ 0, %.lr.ph.us ], [ %indvars.iv.next, %33 ]
  %34 = getelementptr inbounds nuw double, ptr %28, i64 %indvars.iv
  %35 = load double, ptr %34, align 8, !tbaa !76
  %36 = load double, ptr %32, align 8, !tbaa !76
  %37 = fneg nsz double %36
  %38 = tail call nsz double @llvm.fmuladd.f64(double %37, double %16, double %35)
  %39 = fmul nsz double %18, %38
  %40 = getelementptr inbounds nuw double, ptr %30, i64 %indvars.iv
  store double %39, ptr %40, align 8, !tbaa !76
  store double %39, ptr %32, align 8, !tbaa !76
  %41 = load double, ptr %40, align 8, !tbaa !76
  %42 = fcmp nsz ogt double %41, -1.000000e+00
  %43 = select nsz i1 %42, double %41, double -1.000000e+00
  %44 = fcmp nsz ogt double %43, 1.000000e+00
  %..i.us = select nsz i1 %44, double 1.000000e+00, double %43
  store double %..i.us, ptr %40, align 8, !tbaa !76
  %indvars.iv.next = add nuw nsw i64 %indvars.iv, 1
  %exitcond.not = icmp eq i64 %indvars.iv.next, %wide.trip.count
  br i1 %exitcond.not, label %._crit_edge.us, label %33, !llvm.loop !90

._crit_edge.us:                                   ; preds = %33
  %indvars.iv.next50 = add nsw i64 %indvars.iv49, 1
  %exitcond53.not = icmp eq i64 %indvars.iv.next50, %wide.trip.count52
  br i1 %exitcond53.not, label %._crit_edge46, label %.lr.ph.us, !llvm.loop !91

._crit_edge46:                                    ; preds = %._crit_edge.us, %4
  ret i32 0
}